#include <math.h>
#include <stdio.h>
#include <stdlib.h>
#include <string.h>

int k(int n)
{
	int i;
	int k1=1,k2=2;
	int a;
	if(n>1)
	{
		for(i=1;i<n;i++)
		{
			a=k2;
		    k2=k1+k2;
		    k1=a;
		}
	}
	else if(n=1) k2=2;
	return k2;
}


int main()
{
	int n;
	scanf("%d",&n);
	int i,j;
	for(i=0;i<n;i++)
	{
		int num;
		scanf("%d",&num);
		double sum=2;
		for(j=2;j<=num;j++)
		{
			sum=sum+((double)k(j)/(double)k(j-1));
		}
		printf("%.3lf\n",sum);
	}
}

		
