; ModuleID = '29/147.c'
source_filename = "29/147.c"
target datalayout = "e-m:e-p270:32:32-p271:32:32-p272:64:64-i64:64-f80:128-n8:16:32:64-S128"
target triple = "x86_64-pc-linux-gnu"

@.str = private unnamed_addr constant [3 x i8] c"%d\00", align 1
@.str.1 = private unnamed_addr constant [7 x i8] c"%.3lf\0A\00", align 1

; Function Attrs: noinline nounwind uwtable
define dso_local i32 @k(i32 %0) #0 {
  %2 = alloca i32, align 4
  %3 = alloca i32, align 4
  %4 = alloca i32, align 4
  %5 = alloca i32, align 4
  %6 = alloca i32, align 4
  store i32 %0, i32* %2, align 4
  store i32 1, i32* %4, align 4
  store i32 2, i32* %5, align 4
  %7 = load i32, i32* %2, align 4
  %8 = icmp sgt i32 %7, 1
  br i1 %8, label %9, label %24

9:                                                ; preds = %1
  store i32 1, i32* %3, align 4
  br label %10

10:                                               ; preds = %20, %9
  %11 = load i32, i32* %3, align 4
  %12 = load i32, i32* %2, align 4
  %13 = icmp slt i32 %11, %12
  br i1 %13, label %14, label %23

14:                                               ; preds = %10
  %15 = load i32, i32* %5, align 4
  store i32 %15, i32* %6, align 4
  %16 = load i32, i32* %4, align 4
  %17 = load i32, i32* %5, align 4
  %18 = add nsw i32 %16, %17
  store i32 %18, i32* %5, align 4
  %19 = load i32, i32* %6, align 4
  store i32 %19, i32* %4, align 4
  br label %20

20:                                               ; preds = %14
  %21 = load i32, i32* %3, align 4
  %22 = add nsw i32 %21, 1
  store i32 %22, i32* %3, align 4
  br label %10

23:                                               ; preds = %10
  br label %27

24:                                               ; preds = %1
  store i32 1, i32* %2, align 4
  br i1 true, label %25, label %26

25:                                               ; preds = %24
  store i32 2, i32* %5, align 4
  br label %26

26:                                               ; preds = %25, %24
  br label %27

27:                                               ; preds = %26, %23
  %28 = load i32, i32* %5, align 4
  ret i32 %28
}

; Function Attrs: noinline nounwind uwtable
define dso_local i32 @main() #0 {
  %1 = alloca i32, align 4
  %2 = alloca i32, align 4
  %3 = alloca i32, align 4
  %4 = alloca i32, align 4
  %5 = alloca i32, align 4
  %6 = alloca double, align 8
  store i32 0, i32* %1, align 4
  %7 = call i32 (i8*, ...) @__isoc99_scanf(i8* getelementptr inbounds ([3 x i8], [3 x i8]* @.str, i64 0, i64 0), i32* %2)
  store i32 0, i32* %3, align 4
  br label %8

8:                                                ; preds = %35, %0
  %9 = load i32, i32* %3, align 4
  %10 = load i32, i32* %2, align 4
  %11 = icmp slt i32 %9, %10
  br i1 %11, label %12, label %38

12:                                               ; preds = %8
  %13 = call i32 (i8*, ...) @__isoc99_scanf(i8* getelementptr inbounds ([3 x i8], [3 x i8]* @.str, i64 0, i64 0), i32* %5)
  store double 2.000000e+00, double* %6, align 8
  store i32 2, i32* %4, align 4
  br label %14

14:                                               ; preds = %29, %12
  %15 = load i32, i32* %4, align 4
  %16 = load i32, i32* %5, align 4
  %17 = icmp sle i32 %15, %16
  br i1 %17, label %18, label %32

18:                                               ; preds = %14
  %19 = load double, double* %6, align 8
  %20 = load i32, i32* %4, align 4
  %21 = call i32 @k(i32 %20)
  %22 = sitofp i32 %21 to double
  %23 = load i32, i32* %4, align 4
  %24 = sub nsw i32 %23, 1
  %25 = call i32 @k(i32 %24)
  %26 = sitofp i32 %25 to double
  %27 = fdiv double %22, %26
  %28 = fadd double %19, %27
  store double %28, double* %6, align 8
  br label %29

29:                                               ; preds = %18
  %30 = load i32, i32* %4, align 4
  %31 = add nsw i32 %30, 1
  store i32 %31, i32* %4, align 4
  br label %14

32:                                               ; preds = %14
  %33 = load double, double* %6, align 8
  %34 = call i32 (i8*, ...) @printf(i8* getelementptr inbounds ([7 x i8], [7 x i8]* @.str.1, i64 0, i64 0), double %33)
  br label %35

35:                                               ; preds = %32
  %36 = load i32, i32* %3, align 4
  %37 = add nsw i32 %36, 1
  store i32 %37, i32* %3, align 4
  br label %8

38:                                               ; preds = %8
  %39 = load i32, i32* %1, align 4
  ret i32 %39
}

declare dso_local i32 @__isoc99_scanf(i8*, ...) #1

declare dso_local i32 @printf(i8*, ...) #1


!llvm.module.flags = !{!0}
!llvm.ident = !{!1}

!0 = !{i32 1, !"wchar_size", i32 4}
!1 = !{!"clang version 10.0.0-4ubuntu1 "}
